; Function Attrs: mustprogress nounwind uwtable
define internal fastcc void @_ZN12_GLOBAL__N_112SymbolFields11SymbolTypesD2Ev(ptr nocapture noundef nonnull readonly align 8 dereferenceable(144) %0) unnamed_addr #0 align 2 {
  %2 = getelementptr inbounds nuw i8, ptr %0, i64 120
  %3 = load ptr, ptr %2, align 8
  %.not.i.i.i = icmp eq ptr %3, null
  br i1 %.not.i.i.i, label %_ZNSt6vectorIN4llvm9StringRefESaIS1_EED2Ev.exit, label %4

4:                                                ; preds = %1
  %5 = getelementptr inbounds i8, ptr %0, i64 136
  %6 = load ptr, ptr %5, align 8
  %7 = ptrtoint ptr %6 to i64
  %8 = ptrtoint ptr %3 to i64
  %9 = sub i64 %7, %8
  tail call void @_ZdlPvm(ptr noundef nonnull %3, i64 noundef %9) #20
  br label %_ZNSt6vectorIN4llvm9StringRefESaIS1_EED2Ev.exit

_ZNSt6vectorIN4llvm9StringRefESaIS1_EED2Ev.exit:  ; preds = %1, %4
  %10 = getelementptr inbounds nuw i8, ptr %0, i64 96
  %11 = load ptr, ptr %10, align 8
  %.not.i.i.i1 = icmp eq ptr %11, null
  br i1 %.not.i.i.i1, label %_ZNSt6vectorIN4llvm9StringRefESaIS1_EED2Ev.exit2, label %12

12:                                               ; preds = %_ZNSt6vectorIN4llvm9StringRefESaIS1_EED2Ev.exit
  %13 = getelementptr inbounds i8, ptr %0, i64 112
  %14 = load ptr, ptr %13, align 8
  %15 = ptrtoint ptr %14 to i64
  %16 = ptrtoint ptr %11 to i64
  %17 = sub i64 %15, %16
  tail call void @_ZdlPvm(ptr noundef nonnull %11, i64 noundef %17) #20
  br label %_ZNSt6vectorIN4llvm9StringRefESaIS1_EED2Ev.exit2

_ZNSt6vectorIN4llvm9StringRefESaIS1_EED2Ev.exit2: ; preds = %_ZNSt6vectorIN4llvm9StringRefESaIS1_EED2Ev.exit, %12
  %18 = getelementptr inbounds nuw i8, ptr %0, i64 72
  %19 = load ptr, ptr %18, align 8
  %.not.i.i.i3 = icmp eq ptr %19, null
  br i1 %.not.i.i.i3, label %_ZNSt6vectorIN4llvm9StringRefESaIS1_EED2Ev.exit4, label %20

20:                                               ; preds = %_ZNSt6vectorIN4llvm9StringRefESaIS1_EED2Ev.exit2
  %21 = getelementptr inbounds i8, ptr %0, i64 88
  %22 = load ptr, ptr %21, align 8
  %23 = ptrtoint ptr %22 to i64
  %24 = ptrtoint ptr %19 to i64
  %25 = sub i64 %23, %24
  tail call void @_ZdlPvm(ptr noundef nonnull %19, i64 noundef %25) #20
  br label %_ZNSt6vectorIN4llvm9StringRefESaIS1_EED2Ev.exit4

_ZNSt6vectorIN4llvm9StringRefESaIS1_EED2Ev.exit4: ; preds = %_ZNSt6vectorIN4llvm9StringRefESaIS1_EED2Ev.exit2, %20
  %26 = getelementptr inbounds nuw i8, ptr %0, i64 48
  %27 = load ptr, ptr %26, align 8
  %.not.i.i.i5 = icmp eq ptr %27, null
  br i1 %.not.i.i.i5, label %_ZNSt6vectorIN4llvm9StringRefESaIS1_EED2Ev.exit6, label %28

28:                                               ; preds = %_ZNSt6vectorIN4llvm9StringRefESaIS1_EED2Ev.exit4
  %29 = getelementptr inbounds i8, ptr %0, i64 64
  %30 = load ptr, ptr %29, align 8
  %31 = ptrtoint ptr %30 to i64
  %32 = ptrtoint ptr %27 to i64
  %33 = sub i64 %31, %32
  tail call void @_ZdlPvm(ptr noundef nonnull %27, i64 noundef %33) #20
  br label %_ZNSt6vectorIN4llvm9StringRefESaIS1_EED2Ev.exit6

_ZNSt6vectorIN4llvm9StringRefESaIS1_EED2Ev.exit6: ; preds = %_ZNSt6vectorIN4llvm9StringRefESaIS1_EED2Ev.exit4, %28
  %34 = getelementptr inbounds nuw i8, ptr %0, i64 24
  %35 = load ptr, ptr %34, align 8
  %.not.i.i.i7 = icmp eq ptr %35, null
  br i1 %.not.i.i.i7, label %_ZNSt6vectorIN4llvm9StringRefESaIS1_EED2Ev.exit8, label %36

36:                                               ; preds = %_ZNSt6vectorIN4llvm9StringRefESaIS1_EED2Ev.exit6
  %37 = getelementptr inbounds i8, ptr %0, i64 40
  %38 = load ptr, ptr %37, align 8
  %39 = ptrtoint ptr %38 to i64
  %40 = ptrtoint ptr %35 to i64
  %41 = sub i64 %39, %40
  tail call void @_ZdlPvm(ptr noundef nonnull %35, i64 noundef %41) #20
  br label %_ZNSt6vectorIN4llvm9StringRefESaIS1_EED2Ev.exit8

_ZNSt6vectorIN4llvm9StringRefESaIS1_EED2Ev.exit8: ; preds = %_ZNSt6vectorIN4llvm9StringRefESaIS1_EED2Ev.exit6, %36
  %42 = load ptr, ptr %0, align 8
  %.not.i.i.i9 = icmp eq ptr %42, null
  br i1 %.not.i.i.i9, label %_ZNSt6vectorIN4llvm9StringRefESaIS1_EED2Ev.exit10, label %43

43:                                               ; preds = %_ZNSt6vectorIN4llvm9StringRefESaIS1_EED2Ev.exit8
  %44 = getelementptr inbounds nuw i8, ptr %0, i64 16
  %45 = load ptr, ptr %44, align 8
  %46 = ptrtoint ptr %45 to i64
  %47 = ptrtoint ptr %42 to i64
  %48 = sub i64 %46, %47
  tail call void @_ZdlPvm(ptr noundef nonnull %42, i64 noundef %48) #20
  br label %_ZNSt6vectorIN4llvm9StringRefESaIS1_EED2Ev.exit10

_ZNSt6vectorIN4llvm9StringRefESaIS1_EED2Ev.exit10: ; preds = %_ZNSt6vectorIN4llvm9StringRefESaIS1_EED2Ev.exit8, %43
  ret void
}